target datalayout = "e-m:e-p270:32:32-p271:32:32-p272:64:64-i64:64-i128:128-f80:128-n8:16:32:64-S128"
target triple = "x86_64-pc-linux-gnu"

; Function Attrs: nounwind uwtable
define dso_local void @KeccakP1600_AddLanes(ptr noundef %0, ptr noundef %1, i32 noundef %2) #0 {
  %4 = alloca ptr, align 8
  %5 = alloca ptr, align 8
  %6 = alloca i32, align 4
  %7 = alloca i32, align 4
  store ptr %0, ptr %4, align 8
  store ptr %1, ptr %5, align 8
  store i32 %2, ptr %6, align 4
  call void @llvm.lifetime.start.p0(i64 4, ptr %7) #4
  store i32 0, ptr %7, align 4
  br label %8

8:                                                ; preds = %118, %3
  %9 = load i32, ptr %7, align 4
  %10 = add i32 %9, 8
  %11 = load i32, ptr %6, align 4
  %12 = icmp ule i32 %10, %11
  br i1 %12, label %13, label %121

13:                                               ; preds = %8
  %14 = load ptr, ptr %5, align 8
  %15 = load i32, ptr %7, align 4
  %16 = add i32 %15, 0
  %17 = zext i32 %16 to i64
  %18 = getelementptr inbounds nuw i64, ptr %14, i64 %17
  %19 = load i64, ptr %18, align 8
  %20 = load ptr, ptr %4, align 8
  %21 = load i32, ptr %7, align 4
  %22 = add i32 %21, 0
  %23 = zext i32 %22 to i64
  %24 = getelementptr inbounds nuw i64, ptr %20, i64 %23
  %25 = load i64, ptr %24, align 8
  %26 = xor i64 %25, %19
  store i64 %26, ptr %24, align 8
  %27 = load ptr, ptr %5, align 8
  %28 = load i32, ptr %7, align 4
  %29 = add i32 %28, 1
  %30 = zext i32 %29 to i64
  %31 = getelementptr inbounds nuw i64, ptr %27, i64 %30
  %32 = load i64, ptr %31, align 8
  %33 = load ptr, ptr %4, align 8
  %34 = load i32, ptr %7, align 4
  %35 = add i32 %34, 1
  %36 = zext i32 %35 to i64
  %37 = getelementptr inbounds nuw i64, ptr %33, i64 %36
  %38 = load i64, ptr %37, align 8
  %39 = xor i64 %38, %32
  store i64 %39, ptr %37, align 8
  %40 = load ptr, ptr %5, align 8
  %41 = load i32, ptr %7, align 4
  %42 = add i32 %41, 2
  %43 = zext i32 %42 to i64
  %44 = getelementptr inbounds nuw i64, ptr %40, i64 %43
  %45 = load i64, ptr %44, align 8
  %46 = load ptr, ptr %4, align 8
  %47 = load i32, ptr %7, align 4
  %48 = add i32 %47, 2
  %49 = zext i32 %48 to i64
  %50 = getelementptr inbounds nuw i64, ptr %46, i64 %49
  %51 = load i64, ptr %50, align 8
  %52 = xor i64 %51, %45
  store i64 %52, ptr %50, align 8
  %53 = load ptr, ptr %5, align 8
  %54 = load i32, ptr %7, align 4
  %55 = add i32 %54, 3
  %56 = zext i32 %55 to i64
  %57 = getelementptr inbounds nuw i64, ptr %53, i64 %56
  %58 = load i64, ptr %57, align 8
  %59 = load ptr, ptr %4, align 8
  %60 = load i32, ptr %7, align 4
  %61 = add i32 %60, 3
  %62 = zext i32 %61 to i64
  %63 = getelementptr inbounds nuw i64, ptr %59, i64 %62
  %64 = load i64, ptr %63, align 8
  %65 = xor i64 %64, %58
  store i64 %65, ptr %63, align 8
  %66 = load ptr, ptr %5, align 8
  %67 = load i32, ptr %7, align 4
  %68 = add i32 %67, 4
  %69 = zext i32 %68 to i64
  %70 = getelementptr inbounds nuw i64, ptr %66, i64 %69
  %71 = load i64, ptr %70, align 8
  %72 = load ptr, ptr %4, align 8
  %73 = load i32, ptr %7, align 4
  %74 = add i32 %73, 4
  %75 = zext i32 %74 to i64
  %76 = getelementptr inbounds nuw i64, ptr %72, i64 %75
  %77 = load i64, ptr %76, align 8
  %78 = xor i64 %77, %71
  store i64 %78, ptr %76, align 8
  %79 = load ptr, ptr %5, align 8
  %80 = load i32, ptr %7, align 4
  %81 = add i32 %80, 5
  %82 = zext i32 %81 to i64
  %83 = getelementptr inbounds nuw i64, ptr %79, i64 %82
  %84 = load i64, ptr %83, align 8
  %85 = load ptr, ptr %4, align 8
  %86 = load i32, ptr %7, align 4
  %87 = add i32 %86, 5
  %88 = zext i32 %87 to i64
  %89 = getelementptr inbounds nuw i64, ptr %85, i64 %88
  %90 = load i64, ptr %89, align 8
  %91 = xor i64 %90, %84
  store i64 %91, ptr %89, align 8
  %92 = load ptr, ptr %5, align 8
  %93 = load i32, ptr %7, align 4
  %94 = add i32 %93, 6
  %95 = zext i32 %94 to i64
  %96 = getelementptr inbounds nuw i64, ptr %92, i64 %95
  %97 = load i64, ptr %96, align 8
  %98 = load ptr, ptr %4, align 8
  %99 = load i32, ptr %7, align 4
  %100 = add i32 %99, 6
  %101 = zext i32 %100 to i64
  %102 = getelementptr inbounds nuw i64, ptr %98, i64 %101
  %103 = load i64, ptr %102, align 8
  %104 = xor i64 %103, %97
  store i64 %104, ptr %102, align 8
  %105 = load ptr, ptr %5, align 8
  %106 = load i32, ptr %7, align 4
  %107 = add i32 %106, 7
  %108 = zext i32 %107 to i64
  %109 = getelementptr inbounds nuw i64, ptr %105, i64 %108
  %110 = load i64, ptr %109, align 8
  %111 = load ptr, ptr %4, align 8
  %112 = load i32, ptr %7, align 4
  %113 = add i32 %112, 7
  %114 = zext i32 %113 to i64
  %115 = getelementptr inbounds nuw i64, ptr %111, i64 %114
  %116 = load i64, ptr %115, align 8
  %117 = xor i64 %116, %110
  store i64 %117, ptr %115, align 8
  br label %118

118:                                              ; preds = %13
  %119 = load i32, ptr %7, align 4
  %120 = add i32 %119, 8
  store i32 %120, ptr %7, align 4
  br label %8, !llvm.loop !8

121:                                              ; preds = %8
  br label %122

122:                                              ; preds = %180, %121
  %123 = load i32, ptr %7, align 4
  %124 = add i32 %123, 4
  %125 = load i32, ptr %6, align 4
  %126 = icmp ule i32 %124, %125
  br i1 %126, label %127, label %183

127:                                              ; preds = %122
  %128 = load ptr, ptr %5, align 8
  %129 = load i32, ptr %7, align 4
  %130 = add i32 %129, 0
  %131 = zext i32 %130 to i64
  %132 = getelementptr inbounds nuw i64, ptr %128, i64 %131
  %133 = load i64, ptr %132, align 8
  %134 = load ptr, ptr %4, align 8
  %135 = load i32, ptr %7, align 4
  %136 = add i32 %135, 0
  %137 = zext i32 %136 to i64
  %138 = getelementptr inbounds nuw i64, ptr %134, i64 %137
  %139 = load i64, ptr %138, align 8
  %140 = xor i64 %139, %133
  store i64 %140, ptr %138, align 8
  %141 = load ptr, ptr %5, align 8
  %142 = load i32, ptr %7, align 4
  %143 = add i32 %142, 1
  %144 = zext i32 %143 to i64
  %145 = getelementptr inbounds nuw i64, ptr %141, i64 %144
  %146 = load i64, ptr %145, align 8
  %147 = load ptr, ptr %4, align 8
  %148 = load i32, ptr %7, align 4
  %149 = add i32 %148, 1
  %150 = zext i32 %149 to i64
  %151 = getelementptr inbounds nuw i64, ptr %147, i64 %150
  %152 = load i64, ptr %151, align 8
  %153 = xor i64 %152, %146
  store i64 %153, ptr %151, align 8
  %154 = load ptr, ptr %5, align 8
  %155 = load i32, ptr %7, align 4
  %156 = add i32 %155, 2
  %157 = zext i32 %156 to i64
  %158 = getelementptr inbounds nuw i64, ptr %154, i64 %157
  %159 = load i64, ptr %158, align 8
  %160 = load ptr, ptr %4, align 8
  %161 = load i32, ptr %7, align 4
  %162 = add i32 %161, 2
  %163 = zext i32 %162 to i64
  %164 = getelementptr inbounds nuw i64, ptr %160, i64 %163
  %165 = load i64, ptr %164, align 8
  %166 = xor i64 %165, %159
  store i64 %166, ptr %164, align 8
  %167 = load ptr, ptr %5, align 8
  %168 = load i32, ptr %7, align 4
  %169 = add i32 %168, 3
  %170 = zext i32 %169 to i64
  %171 = getelementptr inbounds nuw i64, ptr %167, i64 %170
  %172 = load i64, ptr %171, align 8
  %173 = load ptr, ptr %4, align 8
  %174 = load i32, ptr %7, align 4
  %175 = add i32 %174, 3
  %176 = zext i32 %175 to i64
  %177 = getelementptr inbounds nuw i64, ptr %173, i64 %176
  %178 = load i64, ptr %177, align 8
  %179 = xor i64 %178, %172
  store i64 %179, ptr %177, align 8
  br label %180

180:                                              ; preds = %127
  %181 = load i32, ptr %7, align 4
  %182 = add i32 %181, 4
  store i32 %182, ptr %7, align 4
  br label %122, !llvm.loop !11

183:                                              ; preds = %122
  br label %184

184:                                              ; preds = %216, %183
  %185 = load i32, ptr %7, align 4
  %186 = add i32 %185, 2
  %187 = load i32, ptr %6, align 4
  %188 = icmp ule i32 %186, %187
  br i1 %188, label %189, label %219

189:                                              ; preds = %184
  %190 = load ptr, ptr %5, align 8
  %191 = load i32, ptr %7, align 4
  %192 = add i32 %191, 0
  %193 = zext i32 %192 to i64
  %194 = getelementptr inbounds nuw i64, ptr %190, i64 %193
  %195 = load i64, ptr %194, align 8
  %196 = load ptr, ptr %4, align 8
  %197 = load i32, ptr %7, align 4
  %198 = add i32 %197, 0
  %199 = zext i32 %198 to i64
  %200 = getelementptr inbounds nuw i64, ptr %196, i64 %199
  %201 = load i64, ptr %200, align 8
  %202 = xor i64 %201, %195
  store i64 %202, ptr %200, align 8
  %203 = load ptr, ptr %5, align 8
  %204 = load i32, ptr %7, align 4
  %205 = add i32 %204, 1
  %206 = zext i32 %205 to i64
  %207 = getelementptr inbounds nuw i64, ptr %203, i64 %206
  %208 = load i64, ptr %207, align 8
  %209 = load ptr, ptr %4, align 8
  %210 = load i32, ptr %7, align 4
  %211 = add i32 %210, 1
  %212 = zext i32 %211 to i64
  %213 = getelementptr inbounds nuw i64, ptr %209, i64 %212
  %214 = load i64, ptr %213, align 8
  %215 = xor i64 %214, %208
  store i64 %215, ptr %213, align 8
  br label %216

216:                                              ; preds = %189
  %217 = load i32, ptr %7, align 4
  %218 = add i32 %217, 2
  store i32 %218, ptr %7, align 4
  br label %184, !llvm.loop !12

219:                                              ; preds = %184
  %220 = load i32, ptr %7, align 4
  %221 = load i32, ptr %6, align 4
  %222 = icmp ult i32 %220, %221
  br i1 %222, label %223, label %237

223:                                              ; preds = %219
  %224 = load ptr, ptr %5, align 8
  %225 = load i32, ptr %7, align 4
  %226 = add i32 %225, 0
  %227 = zext i32 %226 to i64
  %228 = getelementptr inbounds nuw i64, ptr %224, i64 %227
  %229 = load i64, ptr %228, align 8
  %230 = load ptr, ptr %4, align 8
  %231 = load i32, ptr %7, align 4
  %232 = add i32 %231, 0
  %233 = zext i32 %232 to i64
  %234 = getelementptr inbounds nuw i64, ptr %230, i64 %233
  %235 = load i64, ptr %234, align 8
  %236 = xor i64 %235, %229
  store i64 %236, ptr %234, align 8
  br label %237

237:                                              ; preds = %223, %219
  call void @llvm.lifetime.end.p0(i64 4, ptr %7) #4
  ret void
}